; Function Attrs: mustprogress uwtable
define dso_local void @_ZN16cmLocalGenerator15GetRuleLauncherEP17cmGeneratorTargetRKNSt7__cxx1112basic_stringIcSt11char_traitsIcESaIcEEES9_(ptr dead_on_unwind noalias writable sret(%"class.std::__cxx11::basic_string") align 8 %0, ptr noundef nonnull align 8 dereferenceable(824) %1, ptr noundef %2, ptr noundef nonnull align 8 dereferenceable(32) %3, ptr noundef nonnull align 8 dereferenceable(32) %4) local_unnamed_addr #3 align 2 personality ptr @__gxx_personality_v0 {
  %6 = alloca %"class.std::__cxx11::basic_string", align 8
  %7 = alloca %"class.std::__cxx11::basic_string", align 8
  %8 = alloca %"class.std::allocator", align 1
  %9 = getelementptr inbounds i8, ptr %1, i64 112
  %10 = load ptr, ptr %9, align 8
  %11 = tail call ptr @_ZNK10cmMakefile11GetPropertyERKNSt7__cxx1112basic_stringIcSt11char_traitsIcESaIcEEE(ptr noundef nonnull align 8 dereferenceable(3520) %10, ptr noundef nonnull align 8 dereferenceable(32) %3)
  %.not = icmp eq ptr %2, null
  br i1 %.not, label %14, label %12

12:                                               ; preds = %5
  %13 = tail call ptr @_ZNK17cmGeneratorTarget11GetPropertyERKNSt7__cxx1112basic_stringIcSt11char_traitsIcESaIcEEE(ptr noundef nonnull align 8 dereferenceable(2728) %2, ptr noundef nonnull align 8 dereferenceable(32) %3)
  br label %14

14:                                               ; preds = %12, %5
  %.sroa.0.0 = phi ptr [ %11, %5 ], [ %13, %12 ]
  %.not13 = icmp eq ptr %.sroa.0.0, null
  br i1 %.not13, label %19, label %15

15:                                               ; preds = %14
  call void @_ZNSt7__cxx1112basic_stringIcSt11char_traitsIcESaIcEEC1ERKS4_(ptr noundef nonnull align 8 dereferenceable(32) %6, ptr noundef nonnull align 8 dereferenceable(32) %.sroa.0.0)
  call void @_ZNSt7__cxx1112basic_stringIcSt11char_traitsIcESaIcEEC1Ev(ptr noundef nonnull align 8 dereferenceable(32) %7) #23
  invoke void @_ZN21cmGeneratorExpression8EvaluateENSt7__cxx1112basic_stringIcSt11char_traitsIcESaIcEEEP16cmLocalGeneratorRKS5_PK17cmGeneratorTargetP31cmGeneratorExpressionDAGCheckerSC_S9_(ptr dead_on_unwind writable sret(%"class.std::__cxx11::basic_string") align 8 %0, ptr noundef nonnull %6, ptr noundef nonnull %1, ptr noundef nonnull align 8 dereferenceable(32) %4, ptr noundef %2, ptr noundef null, ptr noundef null, ptr noundef nonnull align 8 dereferenceable(32) %7)
          to label %16 unwind label %17

16:                                               ; preds = %15
  call void @_ZNSt7__cxx1112basic_stringIcSt11char_traitsIcESaIcEED1Ev(ptr noundef nonnull align 8 dereferenceable(32) %7) #23
  call void @_ZNSt7__cxx1112basic_stringIcSt11char_traitsIcESaIcEED1Ev(ptr noundef nonnull align 8 dereferenceable(32) %6) #23
  br label %25

17:                                               ; preds = %15
  %18 = landingpad { ptr, i32 }
          cleanup
  call void @_ZNSt7__cxx1112basic_stringIcSt11char_traitsIcESaIcEED1Ev(ptr noundef nonnull align 8 dereferenceable(32) %7) #23
  call void @_ZNSt7__cxx1112basic_stringIcSt11char_traitsIcESaIcEED1Ev(ptr noundef nonnull align 8 dereferenceable(32) %6) #23
  br label %26

19:                                               ; preds = %14
  call void @_ZNSaIcEC1Ev(ptr noundef nonnull align 1 dereferenceable(1) %8) #23
  %20 = invoke noundef ptr @_ZNSt7__cxx1112basic_stringIcSt11char_traitsIcESaIcEE13_M_local_dataEv(ptr noundef nonnull align 8 dereferenceable(32) %0)
          to label %.noexc unwind label %23

.noexc:                                           ; preds = %19
  invoke void @_ZNSt7__cxx1112basic_stringIcSt11char_traitsIcESaIcEE12_Alloc_hiderC1EPcRKS3_(ptr noundef nonnull align 8 dereferenceable(8) %0, ptr noundef %20, ptr noundef nonnull align 1 dereferenceable(1) %8)
          to label %.noexc11 unwind label %23

.noexc11:                                         ; preds = %.noexc
  invoke void @_ZNSt7__cxx1112basic_stringIcSt11char_traitsIcESaIcEE12_M_constructIPKcEEvT_S8_St20forward_iterator_tag(ptr noundef nonnull align 8 dereferenceable(32) %0, ptr noundef nonnull @.str.94, ptr noundef nonnull @.str.94)
          to label %_ZNSt7__cxx1112basic_stringIcSt11char_traitsIcESaIcEEC2IS3_EEPKcRKS3_.exit unwind label %21

21:                                               ; preds = %.noexc11
  %22 = landingpad { ptr, i32 }
          cleanup
  call void @_ZNSaIcED2Ev(ptr noundef nonnull align 1 dereferenceable(1) %0) #23
  br label %.body

_ZNSt7__cxx1112basic_stringIcSt11char_traitsIcESaIcEEC2IS3_EEPKcRKS3_.exit: ; preds = %.noexc11
  call void @_ZNSaIcED1Ev(ptr noundef nonnull align 1 dereferenceable(1) %8) #23
  br label %25

23:                                               ; preds = %.noexc, %19
  %24 = landingpad { ptr, i32 }
          cleanup
  br label %.body

.body:                                            ; preds = %21, %23
  %eh.lpad-body = phi { ptr, i32 } [ %24, %23 ], [ %22, %21 ]
  call void @_ZNSaIcED1Ev(ptr noundef nonnull align 1 dereferenceable(1) %8) #23
  br label %26

25:                                               ; preds = %_ZNSt7__cxx1112basic_stringIcSt11char_traitsIcESaIcEEC2IS3_EEPKcRKS3_.exit, %16
  ret void

26:                                               ; preds = %.body, %17
  %.pn = phi { ptr, i32 } [ %18, %17 ], [ %eh.lpad-body, %.body ]
  resume { ptr, i32 } %.pn
}